(dp0
Vwith
p1
I1
sVreally
p2
I1
sS'all'
p3
I1
sS'$49k.'
p4
I1
sS'just'
p5
I2
sVdemint
p6
I2
sS'ceo'
p7
I1
sS'out'
p8
I1
sS'http://slate.me/f4wcca'
p9
I1
sS'leads'
p10
I1
sS'destroy'
p11
I1
sS'/by'
p12
I1
sVhttp://bit.ly/kttkol
p13
I4
sS'unite'
p14
I1
sS"snob'"
p15
I1
sVtea
p16
I2
sS'go'
p17
I1
sS'lawyer'
p18
I1
sS'up.'
p19
I1
sVthe
p20
I1
sVgay
p21
I1
sS'tim'
p22
I1
sS"don't"
p23
I1
sS'http://t.co/lgbg4lx'
p24
I1
sS'should'
p25
I3
sS'to'
p26
I12
sS"artist'"
p27
I2
sVdown
p28
I1
sVhttp://bit.ly/mpukeh
p29
I1
sS'stassen'
p30
I1
sS'marriage'
p31
I2
sVhttp://bit.ly/eujwdn
p32
I2
sS'must'
p33
I1
sS'2010'
p34
I2
sVparty
p35
I2
sS'do'
p36
I1
sS'his'
p37
I2
sS'demands'
p38
I1
sV-
p39
I4
sS'know:'
p40
I1
sS'breaks'
p41
I2
sVpathetic.
p42
I1
sS'gonna'
p43
I1
sS'early'
p44
I1
sVmen
p45
I1
sS'it:'
p46
I2
sS'know'
p47
I1
sS"college'"
p48
I1
sVbus
p49
I1
sS'not'
p50
I2
sS'taking'
p51
I1
sVsantorum:
p52
I4
sS'provision'
p53
I1
sS'him'
p54
I3
sS'is'
p55
I7
sS'http://bit.ly/kttkol'
p56
I2
sS'lincoln'
p57
I1
sS'gets'
p58
I1
sS'did'
p59
I1
sS'beach'
p60
I1
sS'frank'
p61
I1
sS'median'
p62
I1
sVsantorum
p63
I5
sVoppose
p64
I2
sS'calling'
p65
I2
sS'large'
p66
I1
sVjim
p67
I2
sS'unrelated'
p68
I1
sS'huffpo'
p69
I2
sS'store'
p70
I1
sS'heed'
p71
I1
sS'@daveweigel:'
p72
I1
sS'donated'
p73
I1
sVtoday
p74
I1
sVgingrich,
p75
I3
sS'reform'
p76
I1
sS'http://tinyurl.com/4smdfrv'
p77
I2
sVsucking-up
p78
I2
sVbecause
p79
I3
sS'says'
p80
I1
sVhypocrite
p81
I3
sS'point.'
p82
I1
sS'tea'
p83
I2
sS'mind'
p84
I1
sS'some'
p85
I1
sS'harold'
p86
I1
sS'solution'
p87
I1
sS'cred?'
p88
I2
sVhim
p89
I2
sS'http://bit.ly/earyg6'
p90
I1
sVis
p91
I1
sS'nbc'
p92
I1
sS'https://t.co/95xtp8tz'
p93
I1
sS'after'
p94
I2
sS'thing'
p95
I1
sS'[rt'
p96
I1
sS'really'
p97
I3
sS'rt'
p98
I1
sS'http://slate.me/cwfpnq'
p99
I2
sS'said'
p100
I2
sS'&'
p101
I2
sVnew
p102
I1
sVmuch.
p103
I1
sS'fox'
p104
I3
sVcampaign
p105
I2
sS"boys'"
p106
I2
sS"'he"
p107
I1
sVterminates
p108
I4
sS'does'
p109
I1
sS'health'
p110
I1
sS'goes'
p111
I1
sVhttp://t.co/rwubpetk
p112
I1
sS'($375k)'
p113
I1
sS'new'
p114
I3
sVnews,
p115
I1
sS'moneybomb'
p116
I1
sS'can'
p117
I2
sS'be'
p118
I2
sS'campaign'
p119
I4
sVtells
p120
I1
sS'run'
p121
I1
sVhis
p122
I1
sS'mitt'
p123
I14
sS'men'
p124
I1
sVromney's
p125
I2
sVwest
p126
I1
sS'http://t.co/lhrvedke'
p127
I1
sS'how'
p128
I1
sS'anti-obama,'
p129
I1
sS'vacations'
p130
I1
sS'key'
p131
I1
sS'conservatives'
p132
I1
sVblack
p133
I1
sS'news'
p134
I4
sVrick
p135
I5
sS'pockets.'
p136
I1
sS'problems?'
p137
I1
sS'newt'
p138
I10
sS'care'
p139
I1
sVafter
p140
I1
sS'about'
p141
I1
sVthink
p142
I1
sVdrained
p143
I1
sS'west'
p144
I2
sS"hollywood's"
p145
I2
sS'of'
p146
I5
sS'am'
p147
I1
sS"he's"
p148
I1
sS'|'
p149
I2
sS"'newt"
p150
I2
sS'where'
p151
I1
sS'shameless'
p152
I2
sS'here.'
p153
I1
sS'http://bit.ly/lpfg5b'
p154
I1
sS'#p2'
p155
I2
sS'or'
p156
I2
sS'gingrich'
p157
I7
sS'http://bit.ly/mpukeh'
p158
I1
sS'embraces'
p159
I1
sS'jim'
p160
I2
sVcontracts
p161
I4
sS'(cum).'
p162
I1
sVnewt
p163
I8
sS'town.'
p164
I2
sS'http://t.co/nnk4kxcj'
p165
I2
sS'primary'
p166
I1
sS'private'
p167
I1
sS'jesus'
p168
I1
sS'down'
p169
I3
sS'till'
p170
I1
sVromney
p171
I2
sS'church'
p172
I2
sS'crooks'
p173
I2
sVhe\u2019s
p174
I2
sS'http://t.co/du4xuo4g'
p175
I1
sS'everybody'
p176
I1
sS"doesn't"
p177
I1
sS'he'
p178
I2
sS'romney?'
p179
I1
sS'from'
p180
I1
sS'http://t.co/xcqwxw3w'
p181
I1
sVspeaking
p182
I1
sS'http://t.co/rwubpetk'
p183
I2
sS'http://bit.ly/ebcao3'
p184
I1
sS'top'
p185
I1
sS'give'
p186
I2
sS'contracts'
p187
I2
sS'chief'
p188
I2
sS'chu'
p189
I1
sS'terminates'
p190
I2
sS'siren:'
p191
I1
sVblack
p192
I3
sS"'letterman,'"
p193
I1
sVcalled
p194
I1
sS'was'
p195
I1
sVcalling
p196
I1
sS'today'
p197
I1
sVrick
p198
I11
sVhttp://bit.ly/ebcao3
p199
I1
sVgingrich
p200
I4
sVboys'
p201
I1
sS'gay'
p202
I2
sS'on'
p203
I2
sVpaganism,
p204
I1
sVus
p205
I1
sS'#topprog'
p206
I2
sS'hypocrite'
p207
I2
sVhousehold
p208
I1
sS'direct'
p209
I2
sVnewt's
p210
I1
sV2010
p211
I2
sS'president.'
p212
I1
sVto
p213
I3
sS'http://vnty.fr/jfon4b'
p214
I1
sVincome
p215
I2
sS'http://t.co/cdf8qug1'
p216
I1
sS'with'
p217
I1
sVprivate
p218
I1
sVobama
p219
I3
sS'gingrich,'
p220
I2
sS'10'
p221
I1
sS'kind'
p222
I1
sS'full'
p223
I1
sS'this'
p224
I2
sS'launches'
p225
I1
sVabortion
p226
I2
sS'as'
p227
I1
sS'us'
p228
I1
sVmarriage
p229
I1
sS'http://t.co/m19dsgde'
p230
I1
sS'http://t.co/umnkna4'
p231
I1
sS'sucking-up'
p232
I2
sVwas
p233
I1
sS'speaking'
p234
I1
sS'making'
p235
I1
sS'called'
p236
I1
sS'president;'
p237
I1
sS'and'
p238
I4
sVand
p239
I4
sS'santorum'
p240
I8
sS'scam'
p241
I2
sS'ad'
p242
I1
sS'armstrong'
p243
I1
sVgive
p244
I2
sS'household'
p245
I1
sS'romney'
p246
I11
sVtown.
p247
I1
sVcred?
p248
I2
sVof
p249
I4
sS"romney's"
p250
I2
sS'reads'
p251
I1
sS'paganism,'
p252
I2
sS'liars:'
p253
I2
sS'something'
p254
I2
sS'have'
p255
I1
sS'in'
p256
I6
sS'mail'
p257
I2
sV$49k.
p258
I1
sS'breaking:'
p259
I1
sVjets
p260
I1
sS'tells'
p261
I1
sS'are'
p262
I1
sVhow
p263
I1
sS'http://bit.ly/mjqy5l'
p264
I1
sS'@politicsdaily'
p265
I1
sS'want'
p266
I1
sS'ooops!'
p267
I1
sS'@nprinskeep]'
p268
I1
sS'things'
p269
I1
sS'-'
p270
I3
sS'drudge'
p271
I2
sVchief
p272
I3
sS'very'
p273
I1
sS'mr.'
p274
I2
sVmedian
p275
I1
sS'take'
p276
I1
sS'income'
p277
I2
sS'bus'
p278
I2
sS'party'
p279
I2
sS'you'
p280
I2
sS'demint'
p281
I2
sS'jets'
p282
I1
sS'http://aol.it/flsrpc'
p283
I1
sVshameless
p284
I2
sVfox
p285
I4
sS'in:'
p286
I1
sS'max'
p287
I1
sS'who'
p288
I2
sS'pathetic.'
p289
I3
sS"newt's"
p290
I2
sS'state,'
p291
I1
sS'steps'
p292
I1
sS'burns?'
p293
I2
sS"'brand'?"
p294
I1
sS'much.'
p295
I1
sS"'a"
p296
I1
sVnot
p297
I1
sVhollywood's
p298
I1
sS'law'
p299
I1
sV[video]
p300
I2
sS'maddow:'
p301
I2
sVnews
p302
I4
sS'a'
p303
I2
sVmitt
p304
I4
sS'drained'
p305
I1
sS'i'
p306
I1
sVunrelated
p307
I1
sVcan
p308
I2
sVvery
p309
I1
sVbreaks
p310
I1
sS'think'
p311
I2
sS'wants'
p312
I2
sVin
p313
I6
sS'is,'
p314
I1
sS'so'
p315
I1
sS'came'
p316
I1
sS'http://bit.ly/givpiw'
p317
I2
sS"rick's"
p318
I1
sV($375k)
p319
I1
sS'endorses...'
p320
I1
sS'the'
p321
I7
sVhttp://tinyurl.com/4smdfrv
p322
I3
sS'at'
p323
I2
sS'http://t.co/siuuu2um'
p324
I1
sS'news,'
p325
I1
sVhttp://slate.me/cwfpnq
p326
I2
s.