(dp0
Vno.
p1
I1
sV$49k.
p2
I1
sVjust
p3
I2
sVall
p4
I1
sVever?
p5
I1
sV&quot;reasonable,
p6
I1
sVbefore
p7
I1
sVbased
p8
I1
sVhow
p9
I1
sVmuch&quot;.
p10
I1
sVburns?&quot;
p11
I1
sVshould
p12
I1
sVblog
p13
I1
sVto
p14
I3
sVblack
p15
I2
sVrick
p16
I7
sVstassen
p17
I1
sVhttp://bit.ly/eujwdn
p18
I1
sVmust
p19
I1
sV2010
p20
I2
sVhis
p21
I2
sVvery
p22
I2
sVearly
p23
I1
sVex-wife:
p24
I1
sVputting
p25
I1
sVmoderate&quot;
p26
I1
sVhttp://t.co/irhbpkjy
p27
I1
sVsantorum:
p28
I1
sV[rt
p29
I1
sV#gop
p30
I1
sVrocky
p31
I1
sVcandidate,
p32
I1
sVmedian
p33
I1
sVsolution
p34
I1
sVunrelated
p35
I1
sVsteps
p36
I1
sVproblems?
p37
I1
sVwhere
p38
I1
sVhttp://t.co/awmxremm
p39
I1
sVhttp://tinyurl.com/4smdfrv
p40
I1
sVbecause
p41
I1
sVsays
p42
I2
sVfascinating
p43
I1
sVtoday
p44
I1
sVare
p45
I1
sVlawyer
p46
I1
sVhttp://t.co/lgbg4lx
p47
I1
sVcounter-revolution
p48
I1
sVsexual
p49
I1
sVout
p50
I1
sVsaid
p51
I1
sVfor
p52
I1
sVfox
p53
I2
sVhttp://bit.ly/k5b0za
p54
I1
sVdoes
p55
I1
sV($375k)
p56
I1
sVbe
p57
I1
sVharold
p58
I1
sVrun
p59
I1
sVmitt
p60
I6
sVmen
p61
I1
sVrichest
p62
I1
sVnews
p63
I2
sVhttp://t.co/lhrvedke
p64
I1
sVvacations
p65
I1
sVjets
p66
I1
sVlayout
p67
I1
sVhttp://bit.ly/mpukeh
p68
I1
sVvalley.
p69
I1
sVhttp://t.co/zlbawx45
p70
I1
sVof
p71
I3
sVtaking
p72
I1
sVcalled
p73
I1
sVoppose
p74
I1
sVclimb
p75
I1
sVclose.
p76
I1
sVor
p77
I1
sVcampaign
p78
I1
sVhttp://t.co/nnk4kxcj
p79
I1
sVprivate
p80
I1
sVhttp://bit.ly/kttkol
p81
I2
sV&quot;former&quot;
p82
I1
sVchurch
p83
I1
sVtable
p84
I1
sVhe\u2019s
p85
I1
sVthere.
p86
I1
sVwanted
p87
I1
sVfrom
p88
I3
sVwould
p89
I1
sVanderson
p90
I1
sVatlantic.
p91
I1
sVnewt
p92
I7
sVterminates
p93
I2
sVwas
p94
I2
sVhousehold
p95
I1
sVspeaking
p96
I1
sVthat
p97
I1
sVbecoming
p98
I1
sVbut
p99
I1
sVhttp://vnty.fr/jfon4b
p100
I1
sVwith
p101
I1
sVobama
p102
I1
sVgingrich,
p103
I1
sVmarriage\u2019
p104
I1
sVthis
p105
I1
sVabortion
p106
I1
sVus
p107
I1
sVuncanny
p108
I1
sV&quot;not
p109
I1
sV&quot;who
p110
I1
sVand
p111
I3
sVis
p112
I2
sVromney
p113
I5
sV#romney
p114
I1
sVin
p115
I3
sVhe&#39;s
p116
I1
sVtells
p117
I1
sVdrained
p118
I1
sV@nprinskeep]
p119
I1
sV-
p120
I2
sVcontracts
p121
I2
sVmr.
p122
I1
sVwebsite.
p123
I1
sVincome
p124
I2
sVreally
p125
I1
sVbeach
p126
I1
sV[video]
p127
I1
sVin:
p128
I1
sV|
p129
I1
sVpathetic.
p130
I1
sVuses
p131
I1
sV\u2018open
p132
I1
sVpresident
p133
I1
sVhttp://t.co/uno6bjex
p134
I1
sVhttp://bit.ly/ebcao3
p135
I1
sVwhy
p136
I1
sVgingrich
p137
I4
sVa
p138
I1
sVhypocrite
p139
I1
sVsantorum
p140
I6
sVthink
p141
I2
sVchief
p142
I1
sVso
p143
I1
sVcame
p144
I1
sVit:
p145
I1
sVthe
p146
I6
sVnews,
p147
I1
s.