(lp0
(dp1
S'restriction'
p2
I9
sVnational
p3
I1
sS'hunger'
p4
I6
sS'@borowitzreport:'
p5
I9
sS'executive'
p6
I3
sVw/
p7
I1
sS'tree.'
p8
I3
sS'debate'
p9
I6
sVmurder
p10
I1
sS'wed'
p11
I9
sS"don't"
p12
I3
sS'to'
p13
I12
sS'please..!'
p14
I9
sS'http://bit.ly/hgjndo'
p15
I9
sVthan
p16
I2
sS'far'
p17
I3
sVhunger
p18
I2
sVothers)
p19
I1
sVhttp://bit.ly/hgjndo
p20
I2
sS'fall'
p21
I3
sS'today.'
p22
I3
sS'http://on.cnn.com/brf109'
p23
I3
sS'money-making'
p24
I9
sS'apple'
p25
I3
sS'this'
p26
I9
sVmore
p27
I2
sVstore
p28
I1
sS'house'
p29
I9
sS'national'
p30
I6
sS'http://huff.to/ezrvuf'
p31
I6
sVtime
p32
I2
sS'greece'
p33
I162
sVrestriction
p34
I2
sS'rt'
p35
I9
sVhttp://t.co/qtfv3h4k
p36
I1
sV(@
p37
I1
sVnew
p38
I1
sVhouse
p39
I2
sVsomber
p40
I1
sVweird
p41
I1
sS'gop'
p42
I9
sS'be'
p43
I3
sS'days:'
p44
I9
sVhttp://huff.to/ezrvuf
p45
I1
sVhere
p46
I1
sVtoday.
p47
I1
sS'from'
p48
I3
sS'scheme,'
p49
I9
sS'by'
p50
I3
sS'on'
p51
I9
sS'limits'
p52
I3
sS'settled'
p53
I9
sVmigrants
p54
I2
sVapple
p55
I1
sVbattery.
p56
I1
sS'250'
p57
I6
sVdebate
p58
I1
sVfuels
p59
I1
sVcase
p60
I1
sVabortion
p61
I3
sS'long'
p62
I9
sVstrike
p63
I2
sS'@tracecyrus'
p64
I9
sVpushes
p65
I2
sS'more'
p66
I6
sVand
p67
I1
sS'a'
p68
I9
sS'murder'
p69
I6
sVthis
p70
I2
sS'ago???'
p71
I9
sS'strike'
p72
I6
sS'than'
p73
I6
sS'obama'
p74
I3
sS'case'
p75
I6
sS'migrants'
p76
I6
sVon
p77
I2
sS"wasn't"
p78
I9
sS'abortion'
p79
I18
sS'signed'
p80
I3
sV250
p81
I2
sS'pushes'
p82
I9
sS'in'
p83
I15
sVgreece:
p84
I2
sS'http://twitpic.com/3hjgqk'
p85
I3
sVgop
p86
I2
sVsettled
p87
I2
sS'http://yhoo.it/djrlo3'
p88
I6
sVwasn't
p89
I2
sS'fuels'
p90
I6
sS'greece:'
p91
I6
sVago???
p92
I2
sS'72'
p93
I9
sS'kim'
p94
I9
sS'president'
p95
I3
sVhttp://yhoo.it/djrlo3
p96
I2
sV3
p97
I1
sS'for'
p98
I9
sS'kardashian'
p99
I9
sVa
p100
I2
sVin
p101
I2
sVlong
p102
I2
sS'time'
p103
I9
sS'http://t.co/j29vtcuv'
p104
I9
sS'the'
p105
I6
sS'order'
p106
I3
saI649
a.