(lp0
(dp1
Vno.
p2
I1
sV$49k.
p3
I1
sVjust
p4
I4
sVis
p5
I1
sVever?
p6
I1
sVhttp://tinyurl.com/4smdfrv
p7
I1
sVbased
p8
I2
sVhow
p9
I1
sVshould
p10
I1
sVto
p11
I2
sVbook
p12
I2
sVblack
p13
I2
sVrick
p14
I9
sVstassen
p15
I1
sVhttp://bit.ly/eujwdn
p16
I1
sVveterans
p17
I1
sV2010
p18
I3
sV...
p19
I1
sVhis
p20
I5
sVget
p21
I1
sVvery
p22
I1
sVearly
p23
I1
sVputting
p24
I2
sVnot
p25
I1
sVhttp://t.co/irhbpkjy
p26
I1
sVsantorum:
p27
I1
sVday
p28
I1
sV[rt
p29
I1
sVhttp://bit.ly/gambhu
p30
I1
sVex-wife:
p31
I1
sVreleased.
p32
I1
sVbad
p33
I1
sVunrelated
p34
I1
sVsteps
p35
I1
sVwhere
p36
I1
sV|
p37
I1
sVsalon.com:
p38
I1
sVbecause
p39
I1
sVsays
p40
I2
sVmedian
p41
I1
sVchurch
p42
I1
sVhttp://t.co/ceyqhrx1
p43
I1
sVhttp://t.co/cazzbwdz
p44
I1
sVrate
p45
I1
sVlawyer
p46
I1
sVhttp://t.co/lgbg4lx
p47
I1
sVcounter-revolution
p48
I1
sVsexual
p49
I1
sVout
p50
I2
sVsaid
p51
I2
sVfor
p52
I2
sVfox
p53
I2
sV($375k)
p54
I1
sVbe
p55
I1
sVharold
p56
I1
sVrun
p57
I1
sVmitt
p58
I5
sVmen
p59
I1
sVrichest
p60
I1
sVhttp://t.co/lhrvedke
p61
I1
sVjets
p62
I2
sVlayout
p63
I2
sVhttp://bit.ly/mpukeh
p64
I2
sVnewt
p65
I8
sVon
p66
I2
sVhttp://t.co/zlbawx45
p67
I1
sVof
p68
I3
sVtaking
p69
I1
sVoppose
p70
I1
sVclose.
p71
I1
sVor
p72
I2
sV\u2018open
p73
I1
sVcampaign
p74
I2
sVhttp://t.co/nnk4kxcj
p75
I2
sVprivate
p76
I2
sVhttp://bit.ly/kttkol
p77
I2
sVnews
p78
I2
sVtable
p79
I2
sVhe\u2019s
p80
I1
sVthere.
p81
I2
sVwanted
p82
I1
sVfrom
p83
I1
sVwould
p84
I1
sVhawks
p85
I2
sVreturns
p86
I1
sVterminates
p87
I2
sVwas
p88
I1
sVromney&#39;s
p89
I1
sVtoday
p90
I1
sVthat
p91
I2
sVtax
p92
I1
sV[video]
p93
I1
sVmuch.
p94
I1
sV13.9%
p95
I1
sVwith
p96
I2
sVobama
p97
I1
sVgingrich,
p98
I1
sVmarriage\u2019
p99
I1
sVthis
p100
I1
sVabortion
p101
I1
sVus
p102
I1
sVspeaking
p103
I1
sVcalled
p104
I1
sVand
p105
I3
sVcrusades
p106
I1
sVhousehold
p107
I1
sVromney
p108
I4
sVrap
p109
I1
sVin
p110
I4
sVbreaking:
p111
I1
sVtells
p112
I1
sVhe&#39;s
p113
I1
sVdrained
p114
I2
sV@nprinskeep]
p115
I1
sV-
p116
I4
sVcontracts
p117
I2
sVmr.
p118
I2
sVwebsite.
p119
I2
sVincome
p120
I2
sVin:
p121
I1
sVwho
p122
I2
sVpaid
p123
I1
sVburns?
p124
I2
sVuses
p125
I2
sVbut
p126
I1
sVpresident
p127
I1
sVhttp://t.co/uno6bjex
p128
I1
sVhttp://bit.ly/ebcao3
p129
I1
sVgingrich
p130
I6
sVa
p131
I3
sVhypocrite
p132
I1
sVsantorum
p133
I8
sVthink
p134
I1
sVchief
p135
I1
sVso
p136
I1
sVcame
p137
I1
sVit:
p138
I2
sVthe
p139
I4
sVnews,
p140
I1
saI232
a.