(lp0
(dp1
Vand
p2
I1
sVrestriction
p3
I2
sVapple
p4
I1
sVpushes
p5
I2
sVhunger
p6
I2
sVw/
p7
I1
sVhouse
p8
I2
sVnational
p9
I1
sVhttp://huff.to/ezrvuf
p10
I1
sVin
p11
I2
sV250
p12
I2
sVdebate
p13
I1
sVhttp://t.co/qtfv3h4k
p14
I1
sVlong
p15
I2
sVothers)
p16
I1
sVhere
p17
I1
sV3
p18
I1
sVstrike
p19
I2
sVnew
p20
I1
sV(@
p21
I1
sVhttp://bit.ly/hgjndo
p22
I2
sVgop
p23
I2
sVhttp://yhoo.it/djrlo3
p24
I2
sVmore
p25
I2
sVcase
p26
I1
sVfuels
p27
I1
sVmurder
p28
I1
sVbattery.
p29
I1
sVago???
p30
I2
sVgreece:
p31
I2
sVtoday.
p32
I1
sVthan
p33
I2
sVa
p34
I2
sVon
p35
I2
sVmigrants
p36
I2
sVwasn't
p37
I2
sVabortion
p38
I3
sVsomber
p39
I1
sVthis
p40
I2
sVstore
p41
I1
sVtime
p42
I2
sVweird
p43
I1
sVsettled
p44
I2
saI67
a.