(dp0
Vand
p1
I4
sVhollywood's
p2
I1
sV$49k.
p3
I1
sVcontracts
p4
I4
sVcampaign
p5
I2
sVgive
p6
I2
sVtea
p7
I2
sVhousehold
p8
I1
sVromney
p9
I2
sVprivate
p10
I1
sVromney's
p11
I2
sVjets
p12
I1
sVcred?
p13
I2
sVpaganism,
p14
I1
sVhttp://tinyurl.com/4smdfrv
p15
I3
sVin
p16
I6
sVcalling
p17
I1
sVtells
p18
I1
sVafter
p19
I1
sVreally
p20
I1
sVhttp://slate.me/cwfpnq
p21
I2
sVsucking-up
p22
I2
sVhow
p23
I1
sVdown
p24
I1
sVwith
p25
I1
sVjim
p26
I2
sVfox
p27
I4
sVhttp://t.co/rwubpetk
p28
I1
sVboys'
p29
I1
sVnewt
p30
I8
sVto
p31
I3
sVblack
p32
I1
sVshameless
p33
I2
sVterminates
p34
I4
sVincome
p35
I2
sV($375k)
p36
I1
sVparty
p37
I2
sVdemint
p38
I2
sVwas
p39
I1
sV2010
p40
I2
sVspeaking
p41
I1
sVcan
p42
I2
sVhis
p43
I1
sVgay
p44
I1
sVvery
p45
I1
sVbus
p46
I1
sVmitt
p47
I4
sV-
p48
I4
sVpathetic.
p49
I1
sVmuch.
p50
I1
sVrick
p51
I5
sVnewt's
p52
I1
sVmen
p53
I1
sVnew
p54
I1
sVnot
p55
I1
sVnews
p56
I4
sVhttp://bit.ly/mpukeh
p57
I1
sVhttp://bit.ly/ebcao3
p58
I1
sVhim
p59
I2
sVis
p60
I1
sVgingrich
p61
I4
sVgingrich,
p62
I3
sVhttp://bit.ly/kttkol
p63
I4
sVhypocrite
p64
I3
sVbreaks
p65
I1
sVdrained
p66
I1
sVof
p67
I4
sVsantorum
p68
I5
sVmedian
p69
I1
sVus
p70
I1
sVthink
p71
I1
sVchief
p72
I3
sVunrelated
p73
I1
sVmarriage
p74
I1
sVtoday
p75
I1
sVwest
p76
I1
sVtown.
p77
I1
sVthe
p78
I1
sVcalled
p79
I1
sVnews,
p80
I1
s.