(lp0
(dp1
Vbefore
p2
I1
sVpraises
p3
I1
sVhttp://bit.ly/k9l3ko
p4
I1
sV&#39;letterman,&#39;
p5
I1
sVblog
p6
I1
sVto
p7
I1
sVrick
p8
I3
sVannounce
p9
I1
sV2010
p10
I1
sVdo
p11
I1
sVsomebody
p12
I1
sVvery
p13
I1
sVbid
p14
I1
sVsantorum,
p15
I1
sVreasonable,
p16
I1
sVendorses...
p17
I1
sVknow
p18
I1
sVnot
p19
I3
sVsantorum:
p20
I1
sVrepublican
p21
I1
sVhim
p22
I1
sVpresidential
p23
I1
sVrocky
p24
I1
sVcandidate,
p25
I1
sVwednesday
p26
I1
sVlarge
p27
I1
sVfound
p28
I1
sVguy
p29
I1
sVhttp://t.co/awmxremm
p30
I1
sVsays
p31
I1
sVfascinating
p32
I1
sVdonald
p33
I1
sV10pm!
p34
I1
sVreally
p35
I1
sVapoyaria
p36
I1
sVfor
p37
I1
sVhttp://bit.ly/k5b0za
p38
I1
sVhttp://t.co/ceg6eh2t
p39
I1
sVobama:
p40
I1
sV/by
p41
I1
sVmoderate
p42
I1
sVcan
p43
I1
sVvalley.
p44
I1
sVbe
p45
I1
sVpraise
p46
I1
sVfrank
p47
I1
sVmitt
p48
I6
sVobama...
p49
I1
sVstory
p50
I1
sV&amp;
p51
I1
sVnewt
p52
I5
sVon
p53
I5
sVabout
p54
I2
sVof
p55
I1
sVhere.
p56
I1
sVcain
p57
I1
sVclimb
p58
I1
sVindispensable
p59
I1
sVmarianne
p60
I1
sVtuesday
p61
I2
sVhttp://t.co/tzfv5tiz
p62
I1
sVdon&#39;t
p63
I1
sVmessage
p64
I1
sVmiss
p65
I1
sVbarack
p66
I1
sVlittle
p67
I1
sVfrom
p68
I2
sVhttp://t.co/xcqwxw3w
p69
I1
sVromney?
p70
I1
sVcares
p71
I1
sVtop
p72
I1
sVherman
p73
I1
sVanderson
p74
I1
sVatlantic.
p75
I1
sVpockets.
p76
I1
sVwas
p77
I1
sVfriend
p78
I1
sVchu
p79
I1
sVnewt...
p80
I1
sVpara
p81
I1
sVhttp://aol.it/flsrpc
p82
I1
sVlavished
p83
I1
sVnight\u2019s
p84
I1
sVwith
p85
I1
sVformer
p86
I1
sV@politicsdaily
p87
I1
sVmust
p88
I2
sVgingrich,
p89
I1
sV10
p90
I1
sV#romney
p91
I1
sVrecord
p92
I1
sVuncanny
p93
I1
sVgingrich:
p94
I1
sVhttp://t.co/nabavhbj
p95
I1
sVhttp://t.co/jmawte9p
p96
I1
sVtrump
p97
I1
sVromney
p98
I4
sVreads
p99
I1
sVat
p100
I1
sVhave
p101
I1
sVhuffingtonpost:
p102
I1
sVthings
p103
I1
sV-
p104
I1
sVmr.
p105
I1
sVspeaker
p106
I2
sVesquire
p107
I1
sVyou
p108
I1
sV#gop
p109
I1
sVpresidente.cnn.
p110
I1
sVpresident
p111
I1
sVamerica
p112
I1
sVwhy
p113
I1
sVgingrich
p114
I4
sVa
p115
I2
sVsantorum
p116
I1
sVbecoming
p117
I1
sVhttp://huff.to/ew4mim
p118
I1
sVthe
p119
I6
sVhttp://t.co/xz0vfkkh
p120
I1
saI153
a.