(lp0
(dp1
Vhttp://on.cnn.com/brf109
p2
I1
sVon
p3
I1
sVlimits
p4
I1
sVbe
p5
I1
sVexecutive
p6
I1
sVabortion
p7
I1
sVsigned
p8
I1
sVby
p9
I1
sVto
p10
I1
sVtoday.
p11
I1
sVpresident
p12
I1
sVorder
p13
I1
sVobama
p14
I1
saI13
a.