(lp0
(dp1
Vexecutive
p2
I1
sS'apple'
p3
I3
sVbe
p4
I1
sS'is'
p5
I3
sVto
p6
I1
sS'http://huff.to/ezrvuf'
p7
I3
sS'tree.'
p8
I3
sS'brmc'
p9
I3
sS'debate'
p10
I3
sVobama
p11
I1
sS'http://t.co/3imziqw'
p12
I3
sS'from'
p13
I3
sVabortion
p14
I1
sS'http://twitpic.com/3hjgqk'
p15
I3
sVlimits
p16
I1
sS"don't"
p17
I3
sVsigned
p18
I1
sS'fall'
p19
I3
sS'national'
p20
I3
sS'fuels'
p21
I3
sS'murder'
p22
I3
sS'far'
p23
I3
sVby
p24
I1
sS'epic.'
p25
I3
sVtoday.
p26
I1
sS'#itunes'
p27
I3
sS'case'
p28
I3
sVorder
p29
I1
sVon
p30
I1
sS'this'
p31
I3
sS'abortion'
p32
I3
sS'record'
p33
I3
sVpresident
p34
I1
sS'the'
p35
I6
sVhttp://on.cnn.com/brf109
p36
I1
saI82
a.