(dp0
Vreally
p1
I2
sS'all'
p2
I1
sS'endorses'
p3
I3
sS'just'
p4
I2
sVsantorum,
p5
I2
sVimportant
p6
I1
sS'backs'
p7
I3
sS'tweets.'
p8
I1
sVcandidate\u2026for
p9
I2
sS'weekend?'
p10
I1
sS'before'
p11
I3
sVever
p12
I1
sV#romney
p13
I2
sVthe
p14
I3
sS'based'
p15
I1
sS'family'
p16
I1
sVbarack
p17
I1
sVanderson
p18
I2
sS'jim'
p19
I2
sS'blog'
p20
I3
sVto
p21
I5
sS'rick'
p22
I11
sS'demint'
p23
I2
sS'has'
p24
I2
sS'2010'
p25
I1
sVbecoming
p26
I2
sS'his'
p27
I1
sS'somebody'
p28
I2
sVdonald
p29
I1
sS'very'
p30
I3
sS'de'
p31
I1
sS'santorum,'
p32
I3
sVpara
p33
I1
sVfeels
p34
I2
sS'reasonable,'
p35
I3
sS'putting'
p36
I1
sVsomebody
p37
I2
sVpraise
p38
I1
sS'office'
p39
I1
sS':p'
p40
I1
sS'him'
p41
I3
sVtuesday
p42
I1
sS'gets'
p43
I1
sS'rocky'
p44
I3
sVlittle
p45
I2
sS'todd'
p46
I3
sS'candidate,'
p47
I3
sS'released.'
p48
I1
sS'presidente.cnn.'
p49
I1
sS'pro-choice'
p50
I1
sVtruth
p51
I2
sS'sido'
p52
I1
sS'guy'
p53
I3
sS'out'
p54
I1
sS'http://t.co/awmxremm'
p55
I3
sVabout
p56
I3
sS'escandalos'
p57
I1
sVbefore
p58
I2
sVgod\u2019s
p59
I2
sS'says'
p60
I6
sS'fascinating'
p61
I3
sVtea
p62
I2
sVtrump
p63
I1
sS'some'
p64
I2
sVdon't
p65
I1
sVreads
p66
I1
sS'http://t.co/cazzbwdz'
p67
I1
sS'donald'
p68
I1
sVhim
p69
I1
sVhuffingtonpost:
p70
I1
sS'counter-revolution'
p71
I1
sS'sexual'
p72
I1
sS'really'
p73
I2
sVhas
p74
I1
sS'apoyaria'
p75
I1
sS'chavez.'
p76
I1
sS'uneducated,'
p77
I1
sS'spoofs'
p78
I1
sS"palin's"
p79
I3
sS'firme'
p80
I1
sS'http://bit.ly/k5b0za'
p81
I3
sS'http://t.co/ceg6eh2t'
p82
I3
sS'obama:'
p83
I1
sS'@adriannecurry'
p84
I1
sVhttp://bit.ly/k5b0za
p85
I2
sVmost
p86
I1
sS'author'
p87
I3
sS'moderate'
p88
I3
sS'advice'
p89
I2
sVthings
p90
I2
sVlavished
p91
I1
sS'mitt'
p92
I12
sS'@mittromney'
p93
I1
sS'obama...'
p94
I1
sS'there.'
p95
I1
sS'layout'
p96
I1
sVrick
p97
I2
sVcome
p98
I2
sVmoderate
p99
I2
sS'valley.'
p100
I3
sS'on'
p101
I3
sS'about'
p102
I2
sS'justin'
p103
I1
sV10
p104
I2
sS'of'
p105
I3
sVhttp://tinyurl.com/3jpsa32
p106
I2
sS'praises'
p107
I1
sVback\u201d\u2026
p108
I2
sS'glittered'
p109
I1
sV#gop
p110
I2
sS'receives'
p111
I3
sS"it's"
p112
I1
sS'climb'
p113
I3
sS'or'
p114
I1
sVapoyaria
p115
I1
sVhttp://t.co/tzfv5tiz
p116
I2
sVnewt
p117
I3
sVreasonable,
p118
I2
sS'tuesday'
p119
I1
sS'http://t.co/tzfv5tiz'
p120
I2
sS'http://t.co/pwgbveyc'
p121
I1
sV\u201ccompelled
p122
I2
sVromney
p123
I4
sV/by
p124
I1
sVobama:
p125
I1
sVpresident
p126
I6
sS'ante'
p127
I1
sS'table'
p128
I1
sS'know,'
p129
I1
sS'your'
p130
I2
sS'barack'
p131
I1
sV'letterman,'
p132
I1
sVformer
p133
I2
sS'from'
p134
I9
sS'cares'
p135
I2
sVhttp://huff.to/ew4mim
p136
I1
sVrocky
p137
I2
sVpraises
p138
I1
sS'returns'
p139
I1
sS'long'
p140
I1
sVhttp://is.gd/7fy65o
p141
I1
sS'anyone'
p142
I1
sS'ran'
p143
I1
sS'anderson'
p144
I3
sS'atlantic.'
p145
I3
sVworld.\u201d
p146
I2
sS'newt'
p147
I11
sVhttp://t.co/ceg6eh2t
p148
I2
sVknow
p149
I1
sS'was'
p150
I4
sS'until'
p151
I1
sS'friend'
p152
I3
sVwants
p153
I2
sVgingrich
p154
I3
sS'santorum:'
p155
I1
sS'para'
p156
I1
sS'that'
p157
I1
sVobama...
p158
I1
sS'tax'
p159
I1
sS'becoming'
p160
I3
sS'lavished'
p161
I1
sS'http://t.co/zlbawx45'
p162
I1
sS'falwell'
p163
I3
sS'catch'
p164
I1
sS'13.9%'
p165
I1
sS'ha'
p166
I1
sS'former'
p167
I3
sS'must'
p168
I3
sS'gingrich,'
p169
I3
sVyou
p170
I1
sVcandidate,
p171
I2
sS'http://is.gd/ndsair'
p172
I1
sVon
p173
I3
sS'this'
p174
I1
sS"behind'"
p175
I3
sS'rate'
p176
I1
sVwas
p177
I2
sS'uncanny'
p178
I3
sS'praise'
p179
I1
sVpresident
p180
I1
sS'http://t.co/pz3npzyc'
p181
I2
sS'say'
p182
I1
sS'and'
p183
I2
sVhttp://aol.it/flsrpc
p184
I1
sS'trump'
p185
I1
sVsays
p186
I2
sVvery
p187
I2
sS'romney:obama'
p188
I1
sVpresidente.cnn.
p189
I1
sS'romney'
p190
I7
sVof
p191
I2
sS"romney's"
p192
I1
sS'#romney'
p193
I3
sS'http://t.co/tdghqqmc'
p194
I1
sS'at'
p195
I1
sS'in'
p196
I4
sS'breaking:'
p197
I1
sS'http://t.co/wlcg6dtv'
p198
I3
sS'http://t.co/ojllbg8x'
p199
I3
sVas
p200
I2
sS'huffingtonpost:'
p201
I1
sVguy
p202
I2
sS'no'
p203
I1
sS'little'
p204
I3
sS'jerry'
p205
I3
sVtop
p206
I1
sS'website.'
p207
I1
sS"'left"
p208
I3
sS'endorsement'
p209
I3
sVparty
p210
I2
sS'you'
p211
I1
sS'#gop'
p212
I3
sVsaid
p213
I1
sVhttp://bit.ly/a2iu7q
p214
I2
sS'okay'
p215
I1
sS'congress'
p216
I1
sS'snl'
p217
I1
sS'choice.'
p218
I1
sVfriend
p219
I2
sS'paid'
p220
I1
sVvideo:
p221
I2
sS'uses'
p222
I1
sS'http://t.co/gqzuwabk'
p223
I1
sS'[video]'
p224
I1
sS'why'
p225
I3
sS'grave'
p226
I3
sS'gingrich'
p227
I8
sS'a'
p228
I2
sVmitt
p229
I6
sS'for'
p230
I7
sS'i'
p231
I2
sS'santorum'
p232
I7
sVa
p233
I1
sVcares
p234
I2
sV\u201cdefend
p235
I2
sV@politicsdaily
p236
I1
sS'http://huff.to/ew4mim'
p237
I1
sS'the'
p238
I17
sS'once'
p239
I1
s.