(dp0
Vparty-level
p1
I1
sVpraises
p2
I1
sV&#39;letterman,&#39;
p3
I1
sVhim
p4
I1
sVbarack
p5
I1
sVto
p6
I1
sVrick
p7
I4
sVhas
p8
I1
sVveterans
p9
I1
sV...
p10
I1
sVhis
p11
I2
sVsomebody
p12
I1
sVget
p13
I1
sVsantorum,
p14
I1
sVcaption]:
p15
I1
sVendorses...
p16
I1
sVknow
p17
I1
sVsantorum:
p18
I2
sVday
p19
I1
sVhttp://bit.ly/gambhu
p20
I1
sVlincoln
p21
I1
sVbad
p22
I1
sVheed
p23
I1
sVguy
p24
I1
sV|
p25
I1
sVsalon.com:
p26
I1
sVsays
p27
I1
sVtea
p28
I1
sVhttp://t.co/ceyqhrx1
p29
I1
sVdonald
p30
I1
sVhttp://bit.ly/ayyual
p31
I1
sV[open
p32
I1
sVreally
p33
I1
sVsaid
p34
I1
sVapoyaria
p35
I1
sVfor
p36
I1
sVhttp://t.co/ceg6eh2t
p37
I1
sVobama:
p38
I1
sV/by
p39
I1
sVever
p40
I1
sVfrank
p41
I1
sVmitt
p42
I4
sVobama...
p43
I1
sVby
p44
I1
sVnewt
p45
I5
sVon
p46
I6
sVabout
p47
I2
sVof
p48
I1
sVhttp://is.gd/7fy65o
p49
I1
sVtuesday
p50
I1
sVhttp://t.co/tzfv5tiz
p51
I1
sV[newt
p52
I1
sVdon&#39;t
p53
I1
sVchurch
p54
I1
sVmessage
p55
I1
sVlittle
p56
I1
sVhttp://t.co/xcqwxw3w
p57
I1
sVromney?
p58
I1
sVcares
p59
I1
sVtop
p60
I1
sVhawks
p61
I2
sVchu
p62
I1
sVfriend
p63
I1
sVpara
p64
I1
sVhttp://aol.it/flsrpc
p65
I1
sVlavished
p66
I1
sVhttp://t.co/cdf8qug1
p67
I1
sV@politicsdaily
p68
I1
sV10
p69
I2
sVarithmetic,
p70
I1
sVgingrich...
p71
I1
sVpraise
p72
I1
sVand
p73
I1
sVhttp://t.co/nabavhbj
p74
I1
sVcrusades
p75
I1
sVtrump
p76
I1
sVromney
p77
I3
sVreads
p78
I1
sVrap
p79
I1
sVhuffingtonpost:
p80
I1
sVthings
p81
I2
sV-
p82
I2
sVbook
p83
I2
sVyou
p84
I1
sVpresidente.cnn.
p85
I1
sVstate,
p86
I1
sVmost
p87
I1
sVimportant
p88
I1
sVpresident
p89
I1
sVamerica
p90
I1
sVgingrich
p91
I7
sVa
p92
I3
sVsantorum
p93
I1
sVhttp://huff.to/ew4mim
p94
I1
sVthe
p95
I3
s.