(dp0
Vsays
p1
I2
sVtrump
p2
I1
sVdon't
p3
I1
sVtuesday
p4
I1
sVhttp://t.co/tzfv5tiz
p5
I2
sVromney
p6
I4
sVreads
p7
I1
sVever
p8
I1
sVguy
p9
I2
sVpresident
p10
I1
sVhas
p11
I1
sVreally
p12
I2
sVhuffingtonpost:
p13
I1
sVlittle
p14
I2
sVsaid
p15
I1
sVapoyaria
p16
I1
sVcares
p17
I2
sVthings
p18
I2
sVtop
p19
I1
sV'letterman,'
p20
I1
sVobama:
p21
I1
sVhttp://bit.ly/k5b0za
p22
I2
sVformer
p23
I2
sVnewt
p24
I3
sVhttp://t.co/ceg6eh2t
p25
I2
sVanderson
p26
I2
sVrick
p27
I2
sV/by
p28
I1
sVbefore
p29
I2
sVyou
p30
I1
sVmoderate
p31
I2
sVwas
p32
I2
sVhttp://aol.it/flsrpc
p33
I1
sV#romney
p34
I2
sVsomebody
p35
I2
sVpara
p36
I1
sV10
p37
I2
sVvery
p38
I2
sVlavished
p39
I1
sVmitt
p40
I6
sVsantorum,
p41
I2
sVimportant
p42
I1
sVmost
p43
I1
sVreasonable,
p44
I2
sVknow
p45
I1
sVbarack
p46
I1
sVpraises
p47
I1
sVhim
p48
I1
sV@politicsdaily
p49
I1
sVgingrich
p50
I3
sVa
p51
I1
sVon
p52
I3
sVabout
p53
I3
sV#gop
p54
I2
sVrocky
p55
I2
sVof
p56
I2
sVcandidate,
p57
I2
sVbecoming
p58
I2
sVdonald
p59
I1
sVpresidente.cnn.
p60
I1
sVhttp://huff.to/ew4mim
p61
I1
sVobama...
p62
I1
sVfriend
p63
I2
sVpraise
p64
I1
sVthe
p65
I3
sVhttp://is.gd/7fy65o
p66
I1
s.